target datalayout = "e-m:e-p270:32:32-p271:32:32-p272:64:64-i64:64-i128:128-f80:128-n8:16:32:64-S128"
target triple = "x86_64-pc-linux-gnu"

; Function Attrs: mustprogress nounwind uwtable
define internal noundef i32 @_ZL15_udbg_enumCount14UDebugEnumTypea(i32 noundef %0, i8 noundef signext %1) #0 {
  %3 = alloca i32, align 4
  %4 = alloca i32, align 4
  %5 = alloca i8, align 1
  store i32 %0, ptr %4, align 4, !tbaa !23
  store i8 %1, ptr %5, align 1, !tbaa !25
  %6 = load i32, ptr %4, align 4, !tbaa !23
  switch i32 %6, label %31 [
    i32 0, label %7
    i32 1, label %11
    i32 2, label %15
    i32 3, label %19
    i32 4, label %23
    i32 5, label %27
  ]

7:                                                ; preds = %2
  %8 = load i8, ptr %5, align 1, !tbaa !25
  %9 = icmp ne i8 %8, 0
  %10 = select i1 %9, i32 6, i32 6
  store i32 %10, ptr %3, align 4
  br label %32

11:                                               ; preds = %2
  %12 = load i8, ptr %5, align 1, !tbaa !25
  %13 = icmp ne i8 %12, 0
  %14 = select i1 %13, i32 24, i32 24
  store i32 %14, ptr %3, align 4
  br label %32

15:                                               ; preds = %2
  %16 = load i8, ptr %5, align 1, !tbaa !25
  %17 = icmp ne i8 %16, 0
  %18 = select i1 %17, i32 13, i32 13
  store i32 %18, ptr %3, align 4
  br label %32

19:                                               ; preds = %2
  %20 = load i8, ptr %5, align 1, !tbaa !25
  %21 = icmp ne i8 %20, 0
  %22 = select i1 %21, i32 4, i32 4
  store i32 %22, ptr %3, align 4
  br label %32

23:                                               ; preds = %2
  %24 = load i8, ptr %5, align 1, !tbaa !25
  %25 = icmp ne i8 %24, 0
  %26 = select i1 %25, i32 3, i32 3
  store i32 %26, ptr %3, align 4
  br label %32

27:                                               ; preds = %2
  %28 = load i8, ptr %5, align 1, !tbaa !25
  %29 = icmp ne i8 %28, 0
  %30 = select i1 %29, i32 26, i32 11
  store i32 %30, ptr %3, align 4
  br label %32

31:                                               ; preds = %2
  store i32 -1, ptr %3, align 4
  br label %32

32:                                               ; preds = %31, %27, %23, %19, %15, %11, %7
  %33 = load i32, ptr %3, align 4
  ret i32 %33
}

; Function Attrs: mustprogress uwtable
define i32 @udbg_enumExpectedCount(i32 noundef %0) #1 {
  %2 = alloca i32, align 4
  store i32 %0, ptr %2, align 4, !tbaa !23
  %3 = load i32, ptr %2, align 4, !tbaa !23
  %4 = call noundef i32 @_ZL15_udbg_enumCount14UDebugEnumTypea(i32 noundef %3, i8 noundef signext 1)
  ret i32 %4
}